target datalayout = "e-m:e-p270:32:32-p271:32:32-p272:64:64-i64:64-i128:128-f80:128-n8:16:32:64-S128"
target triple = "x86_64-pc-linux-gnu"

; Function Attrs: nounwind uwtable
define internal i32 @_bit_overlap_internal(ptr noundef %0, ptr noundef %1, i1 noundef zeroext %2) #0 {
  %4 = alloca i32, align 4
  %5 = alloca ptr, align 8
  %6 = alloca ptr, align 8
  %7 = alloca i8, align 1
  %8 = alloca i32, align 4
  %9 = alloca i64, align 8
  %10 = alloca i64, align 8
  %11 = alloca i64, align 8
  %12 = alloca i32, align 4
  %13 = alloca i64, align 8
  store ptr %0, ptr %5, align 8
  store ptr %1, ptr %6, align 8
  %14 = zext i1 %2 to i8
  store i8 %14, ptr %7, align 1
  call void @llvm.lifetime.start.p0(i64 4, ptr %8) #12
  store i32 0, ptr %8, align 4
  call void @llvm.lifetime.start.p0(i64 8, ptr %9) #12
  call void @llvm.lifetime.start.p0(i64 8, ptr %10) #12
  call void @llvm.lifetime.start.p0(i64 8, ptr %11) #12
  br label %15

15:                                               ; preds = %3
  br label %16

16:                                               ; preds = %15
  br label %17

17:                                               ; preds = %16
  br label %18

18:                                               ; preds = %17
  br label %19

19:                                               ; preds = %18
  br label %20

20:                                               ; preds = %19
  %21 = load ptr, ptr %5, align 8
  %22 = getelementptr inbounds i64, ptr %21, i64 1
  %23 = load i64, ptr %22, align 8
  store i64 %23, ptr %11, align 8
  store i64 0, ptr %10, align 8
  br label %24

24:                                               ; preds = %63, %20
  %25 = load i64, ptr %10, align 8
  %26 = load i64, ptr %11, align 8
  %27 = icmp slt i64 %25, %26
  br i1 %27, label %28, label %66

28:                                               ; preds = %24
  %29 = load i64, ptr %10, align 8
  %30 = add i64 %29, 64
  %31 = sub i64 %30, 1
  %32 = load i64, ptr %11, align 8
  %33 = icmp uge i64 %31, %32
  br i1 %33, label %34, label %35

34:                                               ; preds = %28
  br label %66

35:                                               ; preds = %28
  %36 = load ptr, ptr %5, align 8
  %37 = load i64, ptr %10, align 8
  %38 = ashr i64 %37, 6
  %39 = add nsw i64 %38, 2
  %40 = getelementptr inbounds i64, ptr %36, i64 %39
  %41 = load i64, ptr %40, align 8
  %42 = load ptr, ptr %6, align 8
  %43 = load i64, ptr %10, align 8
  %44 = ashr i64 %43, 6
  %45 = add nsw i64 %44, 2
  %46 = getelementptr inbounds i64, ptr %42, i64 %45
  %47 = load i64, ptr %46, align 8
  %48 = and i64 %41, %47
  store i64 %48, ptr %9, align 8
  %49 = load i8, ptr %7, align 1, !range !46, !noundef !47
  %50 = trunc i8 %49 to i1
  br i1 %50, label %51, label %57

51:                                               ; preds = %35
  %52 = load i64, ptr %9, align 8
  %53 = call i64 @llvm.ctpop.i64(i64 %52)
  %54 = trunc i64 %53 to i32
  %55 = load i32, ptr %8, align 4
  %56 = add nsw i32 %55, %54
  store i32 %56, ptr %8, align 4
  br label %62

57:                                               ; preds = %35
  %58 = load i64, ptr %9, align 8
  %59 = icmp ne i64 %58, 0
  br i1 %59, label %60, label %61

60:                                               ; preds = %57
  store i32 1, ptr %4, align 4
  store i32 1, ptr %12, align 4
  br label %109

61:                                               ; preds = %57
  br label %62

62:                                               ; preds = %61, %51
  br label %63

63:                                               ; preds = %62
  %64 = load i64, ptr %10, align 8
  %65 = add i64 %64, 64
  store i64 %65, ptr %10, align 8
  br label %24, !llvm.loop !48

66:                                               ; preds = %34, %24
  %67 = load i64, ptr %10, align 8
  %68 = load i64, ptr %11, align 8
  %69 = icmp slt i64 %67, %68
  br i1 %69, label %70, label %107

70:                                               ; preds = %66
  call void @llvm.lifetime.start.p0(i64 8, ptr %13) #12
  %71 = load i64, ptr %11, align 8
  %72 = and i64 %71, 63
  %73 = shl i64 1, %72
  %74 = sub nsw i64 %73, 1
  store i64 %74, ptr %13, align 8
  %75 = load ptr, ptr %5, align 8
  %76 = load i64, ptr %10, align 8
  %77 = ashr i64 %76, 6
  %78 = add nsw i64 %77, 2
  %79 = getelementptr inbounds i64, ptr %75, i64 %78
  %80 = load i64, ptr %79, align 8
  %81 = load ptr, ptr %6, align 8
  %82 = load i64, ptr %10, align 8
  %83 = ashr i64 %82, 6
  %84 = add nsw i64 %83, 2
  %85 = getelementptr inbounds i64, ptr %81, i64 %84
  %86 = load i64, ptr %85, align 8
  %87 = and i64 %80, %86
  %88 = load i64, ptr %13, align 8
  %89 = and i64 %87, %88
  store i64 %89, ptr %9, align 8
  %90 = load i8, ptr %7, align 1, !range !46, !noundef !47
  %91 = trunc i8 %90 to i1
  br i1 %91, label %92, label %98

92:                                               ; preds = %70
  %93 = load i64, ptr %9, align 8
  %94 = call i64 @llvm.ctpop.i64(i64 %93)
  %95 = trunc i64 %94 to i32
  %96 = load i32, ptr %8, align 4
  %97 = add nsw i32 %96, %95
  store i32 %97, ptr %8, align 4
  br label %103

98:                                               ; preds = %70
  %99 = load i64, ptr %9, align 8
  %100 = icmp ne i64 %99, 0
  br i1 %100, label %101, label %102

101:                                              ; preds = %98
  store i32 1, ptr %4, align 4
  store i32 1, ptr %12, align 4
  br label %104

102:                                              ; preds = %98
  br label %103

103:                                              ; preds = %102, %92
  store i32 0, ptr %12, align 4
  br label %104

104:                                              ; preds = %103, %101
  call void @llvm.lifetime.end.p0(i64 8, ptr %13) #12
  %105 = load i32, ptr %12, align 4
  switch i32 %105, label %109 [
    i32 0, label %106
  ]

106:                                              ; preds = %104
  br label %107

107:                                              ; preds = %106, %66
  %108 = load i32, ptr %8, align 4
  store i32 %108, ptr %4, align 4
  store i32 1, ptr %12, align 4
  br label %109

109:                                              ; preds = %107, %104, %60
  call void @llvm.lifetime.end.p0(i64 8, ptr %11) #12
  call void @llvm.lifetime.end.p0(i64 8, ptr %10) #12
  call void @llvm.lifetime.end.p0(i64 8, ptr %9) #12
  call void @llvm.lifetime.end.p0(i64 4, ptr %8) #12
  %110 = load i32, ptr %4, align 4
  ret i32 %110
}

; Function Attrs: nounwind uwtable
define dso_local i32 @bit_overlap_any(ptr noundef %0, ptr noundef %1) #0 {
  %3 = alloca ptr, align 8
  %4 = alloca ptr, align 8
  store ptr %0, ptr %3, align 8
  store ptr %1, ptr %4, align 8
  %5 = load ptr, ptr %3, align 8
  %6 = load ptr, ptr %4, align 8
  %7 = call i32 @_bit_overlap_internal(ptr noundef %5, ptr noundef %6, i1 noundef zeroext false)
  ret i32 %7
}