; Function Attrs: nofree norecurse nosync nounwind memory(argmem: read) uwtable
define dso_local range(i32 0, 2) i32 @bit_overlap_any(ptr noundef readonly captures(none) %0, ptr noundef readonly captures(none) %1) #3 {
  %3 = getelementptr inbounds nuw i8, ptr %0, i64 8
  %4 = load i64, ptr %3, align 8
  %5 = icmp sgt i64 %4, 0
  br i1 %5, label %.lr.ph.split.i, label %_bit_overlap_internal.exit

.lr.ph.split.i:                                   ; preds = %2, %16
  %.03142.i = phi i64 [ %6, %16 ], [ 0, %2 ]
  %6 = add i64 %.03142.i, 64
  %7 = or disjoint i64 %.03142.i, 63
  %.not.i = icmp ult i64 %7, %4
  br i1 %.not.i, label %8, label %.split.us.i

8:                                                ; preds = %.lr.ph.split.i
  %9 = ashr exact i64 %.03142.i, 6
  %10 = add nsw i64 %9, 2
  %11 = getelementptr inbounds i64, ptr %0, i64 %10
  %12 = load i64, ptr %11, align 8
  %13 = getelementptr inbounds i64, ptr %1, i64 %10
  %14 = load i64, ptr %13, align 8
  %15 = and i64 %14, %12
  %.not33.i = icmp eq i64 %15, 0
  br i1 %.not33.i, label %16, label %_bit_overlap_internal.exit

16:                                               ; preds = %8
  %17 = icmp slt i64 %6, %4
  br i1 %17, label %.lr.ph.split.i, label %_bit_overlap_internal.exit, !llvm.loop !35

.split.us.i:                                      ; preds = %.lr.ph.split.i
  %18 = and i64 %4, 63
  %notmask.i = shl nsw i64 -1, %18
  %19 = xor i64 %notmask.i, -1
  %20 = ashr exact i64 %.03142.i, 6
  %21 = add nsw i64 %20, 2
  %22 = getelementptr inbounds i64, ptr %0, i64 %21
  %23 = load i64, ptr %22, align 8
  %24 = getelementptr inbounds i64, ptr %1, i64 %21
  %25 = load i64, ptr %24, align 8
  %26 = and i64 %23, %19
  %27 = and i64 %26, %25
  %.fr.i = freeze i64 %27
  %.not34.i = icmp ne i64 %.fr.i, 0
  %spec.select.i = zext i1 %.not34.i to i32
  br label %_bit_overlap_internal.exit

_bit_overlap_internal.exit:                       ; preds = %8, %16, %2, %.split.us.i
  %.0.i = phi i32 [ %spec.select.i, %.split.us.i ], [ 0, %2 ], [ 0, %16 ], [ 1, %8 ]
  ret i32 %.0.i
}